target datalayout = "e-m:e-p270:32:32-p271:32:32-p272:64:64-i64:64-i128:128-f80:128-n8:16:32:64-S128"
target triple = "x86_64-pc-linux-gnu"

%"class.euf::ac_plugin" = type { %"class.euf::plugin", i32, i32, ptr, %class.vector, %class.ptr_vector, %class.svector, %class.vector.2, %class.svector.3, %class.stacked_dependency_manager, %class.tracked_uint_set, %class.tracked_uint_set, i64, %"struct.euf::ac_plugin::monomial_hash", %"struct.euf::ac_plugin::monomial_eq", %class.map, %class.svector.11, %class.ptr_vector, %class.svector.13, %class.svector.15, %class.svector.17, %"class.std::function", %class.ptr_vector.19, %class.ptr_vector, %class.ptr_vector, %class.ptr_vector, %class.ptr_vector, %"struct.euf::ac_plugin::ref_counts", %"struct.euf::ac_plugin::ref_counts", %"struct.euf::ac_plugin::ref_counts", %"struct.euf::ac_plugin::ref_counts", %"struct.euf::ac_plugin::ref_counts", %"struct.euf::ac_plugin::ref_counts", %class.svector.9, %class.svector }
%"class.euf::plugin" = type { ptr, ptr }
%class.vector = type { ptr }
%class.vector.2 = type { ptr }
%class.svector.3 = type { %class.vector.4 }
%class.vector.4 = type { ptr }
%class.stacked_dependency_manager = type { [8 x i8], %"class.stacked_dependency_manager<euf::justification>::config::allocator", %class.dependency_manager }
%"class.stacked_dependency_manager<euf::justification>::config::allocator" = type { ptr }
%class.dependency_manager = type { ptr, ptr, %class.ptr_vector.5 }
%class.ptr_vector.5 = type { %class.vector.6 }
%class.vector.6 = type { ptr }
%class.tracked_uint_set = type { %class.svector.7, %class.svector.9 }
%class.svector.7 = type { %class.vector.8 }
%class.vector.8 = type { ptr }
%"struct.euf::ac_plugin::monomial_hash" = type { ptr }
%"struct.euf::ac_plugin::monomial_eq" = type { ptr }
%class.map = type { %class.table2map }
%class.table2map = type { %class.core_hashtable }
%class.core_hashtable = type <{ %"struct.table2map<default_map_entry<unsigned int, euf::ac_plugin::shared>, euf::ac_plugin::monomial_hash, euf::ac_plugin::monomial_eq>::entry_hash_proc", %"struct.table2map<default_map_entry<unsigned int, euf::ac_plugin::shared>, euf::ac_plugin::monomial_hash, euf::ac_plugin::monomial_eq>::entry_eq_proc", ptr, i32, i32, i32, [4 x i8] }>
%"struct.table2map<default_map_entry<unsigned int, euf::ac_plugin::shared>, euf::ac_plugin::monomial_hash, euf::ac_plugin::monomial_eq>::entry_hash_proc" = type { %"struct.euf::ac_plugin::monomial_hash" }
%"struct.table2map<default_map_entry<unsigned int, euf::ac_plugin::shared>, euf::ac_plugin::monomial_hash, euf::ac_plugin::monomial_eq>::entry_eq_proc" = type { %"struct.euf::ac_plugin::monomial_eq" }
%class.svector.11 = type { %class.vector.12 }
%class.vector.12 = type { ptr }
%class.svector.13 = type { %class.vector.14 }
%class.vector.14 = type { ptr }
%class.svector.15 = type { %class.vector.16 }
%class.vector.16 = type { ptr }
%class.svector.17 = type { %class.vector.18 }
%class.vector.18 = type { ptr }
%"class.std::function" = type { %"class.std::_Function_base", ptr }
%"class.std::_Function_base" = type { %"union.std::_Any_data", ptr }
%"union.std::_Any_data" = type { %"union.std::_Nocopy_types" }
%"union.std::_Nocopy_types" = type { { i64, i64 } }
%class.ptr_vector.19 = type { %class.vector.20 }
%class.vector.20 = type { ptr }
%class.ptr_vector = type { %class.vector.0 }
%class.vector.0 = type { ptr }
%"struct.euf::ac_plugin::ref_counts" = type { %class.svector.9, %class.svector.9 }
%class.svector.9 = type { %class.vector.10 }
%class.vector.10 = type { ptr }
%class.svector = type { %class.vector.1 }
%class.vector.1 = type { ptr }

; Function Attrs: mustprogress nounwind uwtable
define linkonce_odr hidden noundef zeroext i1 @_ZNKSt14_Function_base8_M_emptyEv(ptr noundef nonnull align 8 dereferenceable(24) %0) #5 comdat align 2 {
  %2 = alloca ptr, align 8
  store ptr %0, ptr %2, align 8, !tbaa !128
  %3 = load ptr, ptr %2, align 8
  %4 = getelementptr inbounds nuw %"class.std::_Function_base", ptr %3, i32 0, i32 1
  %5 = load ptr, ptr %4, align 8, !tbaa !130
  %6 = icmp ne ptr %5, null
  %7 = xor i1 %6, true
  ret i1 %7
}

; Function Attrs: mustprogress uwtable
define linkonce_odr hidden void @_ZNKSt8functionIFvvEEclEv(ptr noundef nonnull align 8 dereferenceable(32) %0) #4 comdat align 2 {
  %2 = alloca ptr, align 8
  store ptr %0, ptr %2, align 8, !tbaa !111
  %3 = load ptr, ptr %2, align 8
  %4 = call noundef zeroext i1 @_ZNKSt14_Function_base8_M_emptyEv(ptr noundef nonnull align 8 dereferenceable(24) %3)
  br i1 %4, label %5, label %6

5:                                                ; preds = %1
  call void @_ZSt25__throw_bad_function_callv() #22
  unreachable

6:                                                ; preds = %1
  %7 = getelementptr inbounds nuw %"class.std::function", ptr %3, i32 0, i32 1
  %8 = load ptr, ptr %7, align 8, !tbaa !113
  %9 = getelementptr inbounds nuw %"class.std::_Function_base", ptr %3, i32 0, i32 0
  call void %8(ptr noundef nonnull align 8 dereferenceable(16) %9)
  ret void
}

; Function Attrs: mustprogress uwtable
define linkonce_odr hidden noundef nonnull align 8 dereferenceable(8) ptr @_ZN6vectorIN3euf9ac_plugin9undo_kindELb0EjE9push_backERKS2_(ptr noundef nonnull align 8 dereferenceable(8) %0, ptr noundef nonnull align 4 dereferenceable(4) %1) #4 comdat align 2 {
  %3 = alloca ptr, align 8
  %4 = alloca ptr, align 8
  store ptr %0, ptr %3, align 8, !tbaa !137
  store ptr %1, ptr %4, align 8, !tbaa !300
  %5 = load ptr, ptr %3, align 8
  %6 = getelementptr inbounds nuw %class.vector.12, ptr %5, i32 0, i32 0
  %7 = load ptr, ptr %6, align 8, !tbaa !202
  %8 = icmp eq ptr %7, null
  br i1 %8, label %19, label %9

9:                                                ; preds = %2
  %10 = getelementptr inbounds nuw %class.vector.12, ptr %5, i32 0, i32 0
  %11 = load ptr, ptr %10, align 8, !tbaa !202
  %12 = getelementptr inbounds i32, ptr %11, i64 -1
  %13 = load i32, ptr %12, align 4, !tbaa !10
  %14 = getelementptr inbounds nuw %class.vector.12, ptr %5, i32 0, i32 0
  %15 = load ptr, ptr %14, align 8, !tbaa !202
  %16 = getelementptr inbounds i32, ptr %15, i64 -2
  %17 = load i32, ptr %16, align 4, !tbaa !10
  %18 = icmp eq i32 %13, %17
  br i1 %18, label %19, label %20

19:                                               ; preds = %9, %2
  call void @_ZN6vectorIN3euf9ac_plugin9undo_kindELb0EjE13expand_vectorEv(ptr noundef nonnull align 8 dereferenceable(8) %5)
  br label %20

20:                                               ; preds = %19, %9
  %21 = getelementptr inbounds nuw %class.vector.12, ptr %5, i32 0, i32 0
  %22 = load ptr, ptr %21, align 8, !tbaa !202
  %23 = getelementptr inbounds nuw %class.vector.12, ptr %5, i32 0, i32 0
  %24 = load ptr, ptr %23, align 8, !tbaa !202
  %25 = getelementptr inbounds i32, ptr %24, i64 -1
  %26 = load i32, ptr %25, align 4, !tbaa !10
  %27 = zext i32 %26 to i64
  %28 = getelementptr inbounds nuw i32, ptr %22, i64 %27
  %29 = load ptr, ptr %4, align 8, !tbaa !300
  %30 = load i32, ptr %29, align 4, !tbaa !187
  store i32 %30, ptr %28, align 4, !tbaa !187
  %31 = getelementptr inbounds nuw %class.vector.12, ptr %5, i32 0, i32 0
  %32 = load ptr, ptr %31, align 8, !tbaa !202
  %33 = getelementptr inbounds i32, ptr %32, i64 -1
  %34 = load i32, ptr %33, align 4, !tbaa !10
  %35 = add i32 %34, 1
  store i32 %35, ptr %33, align 4, !tbaa !10
  ret ptr %5
}

; Function Attrs: mustprogress uwtable
define hidden void @_ZN3euf9ac_plugin9push_undoENS0_9undo_kindE(ptr noundef nonnull align 8 dereferenceable(432) %0, i32 noundef %1) #4 align 2 {
  %3 = alloca ptr, align 8
  %4 = alloca i32, align 4
  store ptr %0, ptr %3, align 8, !tbaa !3
  store i32 %1, ptr %4, align 4, !tbaa !187
  %5 = load ptr, ptr %3, align 8
  %6 = getelementptr inbounds nuw %"class.euf::ac_plugin", ptr %5, i32 0, i32 16
  %7 = call noundef nonnull align 8 dereferenceable(8) ptr @_ZN6vectorIN3euf9ac_plugin9undo_kindELb0EjE9push_backERKS2_(ptr noundef nonnull align 8 dereferenceable(8) %6, ptr noundef nonnull align 4 dereferenceable(4) %4)
  %8 = load ptr, ptr %5, align 8, !tbaa !12
  %9 = getelementptr inbounds ptr, ptr %8, i64 2
  %10 = load ptr, ptr %9, align 8
  %11 = call noundef i32 %10(ptr noundef nonnull align 8 dereferenceable(432) %5)
  call void @_ZN3euf6plugin16push_plugin_undoEj(ptr noundef nonnull align 8 dereferenceable(16) %5, i32 noundef %11)
  %12 = getelementptr inbounds nuw %"class.euf::ac_plugin", ptr %5, i32 0, i32 21
  call void @_ZNKSt8functionIFvvEEclEv(ptr noundef nonnull align 8 dereferenceable(32) %12)
  ret void
}