; Function Attrs: mustprogress uwtable
define hidden void @_ZN3euf9ac_plugin9push_undoENS0_9undo_kindE(ptr noundef nonnull align 8 dereferenceable(432) %0, i32 noundef %1) local_unnamed_addr #3 align 2 {
  %3 = getelementptr inbounds nuw i8, ptr %0, i64 208
  %4 = load ptr, ptr %3, align 8, !tbaa !104
  %5 = icmp eq ptr %4, null
  br i1 %5, label %12, label %6

6:                                                ; preds = %2
  %7 = getelementptr inbounds i8, ptr %4, i64 -4
  %8 = load i32, ptr %7, align 4, !tbaa !109
  %9 = getelementptr inbounds i8, ptr %4, i64 -8
  %10 = load i32, ptr %9, align 4, !tbaa !109
  %11 = icmp eq i32 %8, %10
  br i1 %11, label %12, label %_ZN6vectorIN3euf9ac_plugin9undo_kindELb0EjE9push_backERKS2_.exit

12:                                               ; preds = %6, %2
  tail call void @_ZN6vectorIN3euf9ac_plugin9undo_kindELb0EjE13expand_vectorEv(ptr noundef nonnull align 8 dereferenceable(8) %3)
  %.pre.i = load ptr, ptr %3, align 8, !tbaa !104
  %.phi.trans.insert.i = getelementptr inbounds i8, ptr %.pre.i, i64 -4
  %.pre2.i = load i32, ptr %.phi.trans.insert.i, align 4, !tbaa !109
  br label %_ZN6vectorIN3euf9ac_plugin9undo_kindELb0EjE9push_backERKS2_.exit

_ZN6vectorIN3euf9ac_plugin9undo_kindELb0EjE9push_backERKS2_.exit: ; preds = %6, %12
  %13 = phi i32 [ %.pre2.i, %12 ], [ %8, %6 ]
  %14 = phi ptr [ %.pre.i, %12 ], [ %4, %6 ]
  %15 = getelementptr inbounds i8, ptr %14, i64 -4
  %16 = zext i32 %13 to i64
  %17 = getelementptr inbounds nuw i32, ptr %14, i64 %16
  store i32 %1, ptr %17, align 4, !tbaa !146
  %18 = add i32 %13, 1
  store i32 %18, ptr %15, align 4, !tbaa !109
  %19 = load ptr, ptr %0, align 8, !tbaa !8
  %20 = getelementptr inbounds nuw i8, ptr %19, i64 16
  %21 = load ptr, ptr %20, align 8
  %22 = tail call noundef i32 %21(ptr noundef nonnull align 8 dereferenceable(432) %0)
  tail call void @_ZN3euf6plugin16push_plugin_undoEj(ptr noundef nonnull align 8 dereferenceable(16) %0, i32 noundef %22)
  %23 = getelementptr inbounds nuw i8, ptr %0, i64 264
  %24 = load ptr, ptr %23, align 8, !tbaa !96
  %.not.i.i = icmp eq ptr %24, null
  br i1 %.not.i.i, label %25, label %_ZNKSt8functionIFvvEEclEv.exit

25:                                               ; preds = %_ZN6vectorIN3euf9ac_plugin9undo_kindELb0EjE9push_backERKS2_.exit
  tail call void @_ZSt25__throw_bad_function_callv() #26
  unreachable

_ZNKSt8functionIFvvEEclEv.exit:                   ; preds = %_ZN6vectorIN3euf9ac_plugin9undo_kindELb0EjE9push_backERKS2_.exit
  %26 = getelementptr inbounds nuw i8, ptr %0, i64 248
  %27 = getelementptr inbounds nuw i8, ptr %0, i64 272
  %28 = load ptr, ptr %27, align 8, !tbaa !148
  tail call void %28(ptr noundef nonnull align 8 dereferenceable(32) %26)
  ret void
}